; Function Attrs: inlinehint mustprogress nounwind uwtable
define internal fastcc void @"_ZZN7testing8internal34TypeParameterizedTestSuiteRegistry22CheckForInstantiationsEvEN3$_0D2Ev"(ptr noundef nonnull readonly align 8 captures(address) dereferenceable(112) %0) unnamed_addr #8 align 2 personality ptr @__gxx_personality_v0 {
  %2 = getelementptr inbounds nuw i8, ptr %0, i64 32
  %3 = getelementptr inbounds nuw i8, ptr %0, i64 64
  %4 = load ptr, ptr %3, align 8, !tbaa !23
  %5 = getelementptr inbounds nuw i8, ptr %0, i64 80
  %6 = icmp eq ptr %4, %5
  br i1 %6, label %_ZNKSt7__cxx1112basic_stringIcSt11char_traitsIcESaIcEE11_M_is_localEv.exit.thread.i.i.i.i.i, label %_ZNKSt7__cxx1112basic_stringIcSt11char_traitsIcESaIcEE11_M_is_localEv.exit.i.i.i.i.i

_ZNKSt7__cxx1112basic_stringIcSt11char_traitsIcESaIcEE11_M_is_localEv.exit.thread.i.i.i.i.i: ; preds = %1
  %7 = getelementptr inbounds nuw i8, ptr %0, i64 72
  %8 = load i64, ptr %7, align 8, !tbaa !26
  %9 = icmp ult i64 %8, 16
  tail call void @llvm.assume(i1 %9)
  br label %_ZN7testing8internal34TypeParameterizedTestSuiteRegistry30TypeParameterizedTestSuiteInfoD2Ev.exit.i

_ZNKSt7__cxx1112basic_stringIcSt11char_traitsIcESaIcEE11_M_is_localEv.exit.i.i.i.i.i: ; preds = %1
  %10 = load i64, ptr %5, align 8, !tbaa !28
  %11 = add i64 %10, 1
  tail call void @_ZdlPvm(ptr noundef %4, i64 noundef %11) #58
  br label %_ZN7testing8internal34TypeParameterizedTestSuiteRegistry30TypeParameterizedTestSuiteInfoD2Ev.exit.i

_ZN7testing8internal34TypeParameterizedTestSuiteRegistry30TypeParameterizedTestSuiteInfoD2Ev.exit.i: ; preds = %_ZNKSt7__cxx1112basic_stringIcSt11char_traitsIcESaIcEE11_M_is_localEv.exit.i.i.i.i.i, %_ZNKSt7__cxx1112basic_stringIcSt11char_traitsIcESaIcEE11_M_is_localEv.exit.thread.i.i.i.i.i
  %12 = load ptr, ptr %2, align 8, !tbaa !23
  %13 = getelementptr inbounds nuw i8, ptr %0, i64 48
  %14 = icmp eq ptr %12, %13
  br i1 %14, label %_ZNKSt7__cxx1112basic_stringIcSt11char_traitsIcESaIcEE11_M_is_localEv.exit.thread.i.i.i, label %_ZNKSt7__cxx1112basic_stringIcSt11char_traitsIcESaIcEE11_M_is_localEv.exit.i.i.i

_ZNKSt7__cxx1112basic_stringIcSt11char_traitsIcESaIcEE11_M_is_localEv.exit.thread.i.i.i: ; preds = %_ZN7testing8internal34TypeParameterizedTestSuiteRegistry30TypeParameterizedTestSuiteInfoD2Ev.exit.i
  %15 = getelementptr inbounds nuw i8, ptr %0, i64 40
  %16 = load i64, ptr %15, align 8, !tbaa !26
  %17 = icmp ult i64 %16, 16
  tail call void @llvm.assume(i1 %17)
  br label %_ZNSt4pairIKNSt7__cxx1112basic_stringIcSt11char_traitsIcESaIcEEEN7testing8internal34TypeParameterizedTestSuiteRegistry30TypeParameterizedTestSuiteInfoEED2Ev.exit

_ZNKSt7__cxx1112basic_stringIcSt11char_traitsIcESaIcEE11_M_is_localEv.exit.i.i.i: ; preds = %_ZN7testing8internal34TypeParameterizedTestSuiteRegistry30TypeParameterizedTestSuiteInfoD2Ev.exit.i
  %18 = load i64, ptr %13, align 8, !tbaa !28
  %19 = add i64 %18, 1
  tail call void @_ZdlPvm(ptr noundef %12, i64 noundef %19) #58
  br label %_ZNSt4pairIKNSt7__cxx1112basic_stringIcSt11char_traitsIcESaIcEEEN7testing8internal34TypeParameterizedTestSuiteRegistry30TypeParameterizedTestSuiteInfoEED2Ev.exit

_ZNSt4pairIKNSt7__cxx1112basic_stringIcSt11char_traitsIcESaIcEEEN7testing8internal34TypeParameterizedTestSuiteRegistry30TypeParameterizedTestSuiteInfoEED2Ev.exit: ; preds = %_ZNKSt7__cxx1112basic_stringIcSt11char_traitsIcESaIcEE11_M_is_localEv.exit.thread.i.i.i, %_ZNKSt7__cxx1112basic_stringIcSt11char_traitsIcESaIcEE11_M_is_localEv.exit.i.i.i
  %20 = load ptr, ptr %0, align 8, !tbaa !23
  %21 = getelementptr inbounds nuw i8, ptr %0, i64 16
  %22 = icmp eq ptr %20, %21
  br i1 %22, label %_ZNKSt7__cxx1112basic_stringIcSt11char_traitsIcESaIcEE11_M_is_localEv.exit.thread.i.i, label %_ZNKSt7__cxx1112basic_stringIcSt11char_traitsIcESaIcEE11_M_is_localEv.exit.i.i

_ZNKSt7__cxx1112basic_stringIcSt11char_traitsIcESaIcEE11_M_is_localEv.exit.thread.i.i: ; preds = %_ZNSt4pairIKNSt7__cxx1112basic_stringIcSt11char_traitsIcESaIcEEEN7testing8internal34TypeParameterizedTestSuiteRegistry30TypeParameterizedTestSuiteInfoEED2Ev.exit
  %23 = getelementptr inbounds nuw i8, ptr %0, i64 8
  %24 = load i64, ptr %23, align 8, !tbaa !26
  %25 = icmp ult i64 %24, 16
  tail call void @llvm.assume(i1 %25)
  br label %_ZNSt7__cxx1112basic_stringIcSt11char_traitsIcESaIcEED2Ev.exit

_ZNKSt7__cxx1112basic_stringIcSt11char_traitsIcESaIcEE11_M_is_localEv.exit.i.i: ; preds = %_ZNSt4pairIKNSt7__cxx1112basic_stringIcSt11char_traitsIcESaIcEEEN7testing8internal34TypeParameterizedTestSuiteRegistry30TypeParameterizedTestSuiteInfoEED2Ev.exit
  %26 = load i64, ptr %21, align 8, !tbaa !28
  %27 = add i64 %26, 1
  tail call void @_ZdlPvm(ptr noundef %20, i64 noundef %27) #58
  br label %_ZNSt7__cxx1112basic_stringIcSt11char_traitsIcESaIcEED2Ev.exit

_ZNSt7__cxx1112basic_stringIcSt11char_traitsIcESaIcEED2Ev.exit: ; preds = %_ZNKSt7__cxx1112basic_stringIcSt11char_traitsIcESaIcEE11_M_is_localEv.exit.thread.i.i, %_ZNKSt7__cxx1112basic_stringIcSt11char_traitsIcESaIcEE11_M_is_localEv.exit.i.i
  ret void
}